target datalayout = "e-m:e-p270:32:32-p271:32:32-p272:64:64-i64:64-i128:128-f80:128-n8:16:32:64-S128"
target triple = "x86_64-pc-linux-gnu"

%struct.ossl_namemap_st = type { i8, ptr, ptr, ptr, i32 }

; Function Attrs: nounwind uwtable
define i32 @ossl_namemap_add_name(ptr noundef %0, i32 noundef %1, ptr noundef %2) #0 {
  %4 = alloca i32, align 4
  %5 = alloca ptr, align 8
  %6 = alloca i32, align 4
  %7 = alloca ptr, align 8
  %8 = alloca i32, align 4
  %9 = alloca i32, align 4
  store ptr %0, ptr %5, align 8, !tbaa !8
  store i32 %1, ptr %6, align 4, !tbaa !21
  store ptr %2, ptr %7, align 8, !tbaa !27
  call void @llvm.lifetime.start.p0(i64 4, ptr %8) #7
  %10 = load ptr, ptr %5, align 8, !tbaa !8
  %11 = icmp eq ptr %10, null
  br i1 %11, label %12, label %14

12:                                               ; preds = %3
  %13 = call ptr @ossl_namemap_stored(ptr noundef null)
  store ptr %13, ptr %5, align 8, !tbaa !8
  br label %14

14:                                               ; preds = %12, %3
  %15 = load ptr, ptr %7, align 8, !tbaa !27
  %16 = icmp eq ptr %15, null
  br i1 %16, label %25, label %17

17:                                               ; preds = %14
  %18 = load ptr, ptr %7, align 8, !tbaa !27
  %19 = load i8, ptr %18, align 1, !tbaa !41
  %20 = sext i8 %19 to i32
  %21 = icmp eq i32 %20, 0
  br i1 %21, label %25, label %22

22:                                               ; preds = %17
  %23 = load ptr, ptr %5, align 8, !tbaa !8
  %24 = icmp eq ptr %23, null
  br i1 %24, label %25, label %26

25:                                               ; preds = %22, %17, %14
  store i32 0, ptr %4, align 4
  store i32 1, ptr %9, align 4
  br label %43

26:                                               ; preds = %22
  %27 = load ptr, ptr %5, align 8, !tbaa !8
  %28 = getelementptr inbounds nuw %struct.ossl_namemap_st, ptr %27, i32 0, i32 2
  %29 = load ptr, ptr %28, align 8, !tbaa !14
  %30 = call i32 @CRYPTO_THREAD_write_lock(ptr noundef %29)
  %31 = icmp ne i32 %30, 0
  br i1 %31, label %33, label %32

32:                                               ; preds = %26
  store i32 0, ptr %4, align 4
  store i32 1, ptr %9, align 4
  br label %43

33:                                               ; preds = %26
  %34 = load ptr, ptr %5, align 8, !tbaa !8
  %35 = load i32, ptr %6, align 4, !tbaa !21
  %36 = load ptr, ptr %7, align 8, !tbaa !27
  %37 = call i32 @namemap_add_name(ptr noundef %34, i32 noundef %35, ptr noundef %36)
  store i32 %37, ptr %8, align 4, !tbaa !21
  %38 = load ptr, ptr %5, align 8, !tbaa !8
  %39 = getelementptr inbounds nuw %struct.ossl_namemap_st, ptr %38, i32 0, i32 2
  %40 = load ptr, ptr %39, align 8, !tbaa !14
  %41 = call i32 @CRYPTO_THREAD_unlock(ptr noundef %40)
  %42 = load i32, ptr %8, align 4, !tbaa !21
  store i32 %42, ptr %4, align 4
  store i32 1, ptr %9, align 4
  br label %43

43:                                               ; preds = %33, %32, %25
  call void @llvm.lifetime.end.p0(i64 4, ptr %8) #7
  %44 = load i32, ptr %4, align 4
  ret i32 %44
}

; Function Attrs: nounwind uwtable
define internal void @get_legacy_evp_names(i32 noundef %0, i32 noundef %1, ptr noundef %2, ptr noundef %3) #0 {
  %5 = alloca i32, align 4
  %6 = alloca i32, align 4
  %7 = alloca ptr, align 8
  %8 = alloca ptr, align 8
  %9 = alloca i32, align 4
  %10 = alloca ptr, align 8
  %11 = alloca [50 x i8], align 16
  store i32 %0, ptr %5, align 4, !tbaa !21
  store i32 %1, ptr %6, align 4, !tbaa !21
  store ptr %2, ptr %7, align 8, !tbaa !27
  store ptr %3, ptr %8, align 8, !tbaa !20
  call void @llvm.lifetime.start.p0(i64 4, ptr %9) #7
  store i32 0, ptr %9, align 4, !tbaa !21
  call void @llvm.lifetime.start.p0(i64 8, ptr %10) #7
  %12 = load i32, ptr %5, align 4, !tbaa !21
  %13 = icmp ne i32 %12, 0
  br i1 %13, label %14, label %25

14:                                               ; preds = %4
  %15 = load ptr, ptr %8, align 8, !tbaa !20
  %16 = load i32, ptr %9, align 4, !tbaa !21
  %17 = load i32, ptr %5, align 4, !tbaa !21
  %18 = call ptr @OBJ_nid2sn(i32 noundef %17)
  %19 = call i32 @ossl_namemap_add_name(ptr noundef %15, i32 noundef %16, ptr noundef %18)
  store i32 %19, ptr %9, align 4, !tbaa !21
  %20 = load ptr, ptr %8, align 8, !tbaa !20
  %21 = load i32, ptr %9, align 4, !tbaa !21
  %22 = load i32, ptr %5, align 4, !tbaa !21
  %23 = call ptr @OBJ_nid2ln(i32 noundef %22)
  %24 = call i32 @ossl_namemap_add_name(ptr noundef %20, i32 noundef %21, ptr noundef %23)
  store i32 %24, ptr %9, align 4, !tbaa !21
  br label %25

25:                                               ; preds = %14, %4
  %26 = load i32, ptr %6, align 4, !tbaa !21
  %27 = icmp ne i32 %26, 0
  br i1 %27, label %28, label %54

28:                                               ; preds = %25
  %29 = load ptr, ptr %8, align 8, !tbaa !20
  %30 = load i32, ptr %9, align 4, !tbaa !21
  %31 = load i32, ptr %6, align 4, !tbaa !21
  %32 = call ptr @OBJ_nid2sn(i32 noundef %31)
  %33 = call i32 @ossl_namemap_add_name(ptr noundef %29, i32 noundef %30, ptr noundef %32)
  store i32 %33, ptr %9, align 4, !tbaa !21
  %34 = load ptr, ptr %8, align 8, !tbaa !20
  %35 = load i32, ptr %9, align 4, !tbaa !21
  %36 = load i32, ptr %6, align 4, !tbaa !21
  %37 = call ptr @OBJ_nid2ln(i32 noundef %36)
  %38 = call i32 @ossl_namemap_add_name(ptr noundef %34, i32 noundef %35, ptr noundef %37)
  store i32 %38, ptr %9, align 4, !tbaa !21
  %39 = load i32, ptr %6, align 4, !tbaa !21
  %40 = call ptr @OBJ_nid2obj(i32 noundef %39)
  store ptr %40, ptr %10, align 8, !tbaa !56
  %41 = icmp ne ptr %40, null
  br i1 %41, label %42, label %53

42:                                               ; preds = %28
  call void @llvm.lifetime.start.p0(i64 50, ptr %11) #7
  %43 = getelementptr inbounds [50 x i8], ptr %11, i64 0, i64 0
  %44 = load ptr, ptr %10, align 8, !tbaa !56
  %45 = call i32 @OBJ_obj2txt(ptr noundef %43, i32 noundef 50, ptr noundef %44, i32 noundef 1)
  %46 = icmp sgt i32 %45, 0
  br i1 %46, label %47, label %52

47:                                               ; preds = %42
  %48 = load ptr, ptr %8, align 8, !tbaa !20
  %49 = load i32, ptr %9, align 4, !tbaa !21
  %50 = getelementptr inbounds [50 x i8], ptr %11, i64 0, i64 0
  %51 = call i32 @ossl_namemap_add_name(ptr noundef %48, i32 noundef %49, ptr noundef %50)
  store i32 %51, ptr %9, align 4, !tbaa !21
  br label %52

52:                                               ; preds = %47, %42
  call void @llvm.lifetime.end.p0(i64 50, ptr %11) #7
  br label %53

53:                                               ; preds = %52, %28
  br label %54

54:                                               ; preds = %53, %25
  %55 = load ptr, ptr %7, align 8, !tbaa !27
  %56 = icmp ne ptr %55, null
  br i1 %56, label %57, label %62

57:                                               ; preds = %54
  %58 = load ptr, ptr %8, align 8, !tbaa !20
  %59 = load i32, ptr %9, align 4, !tbaa !21
  %60 = load ptr, ptr %7, align 8, !tbaa !27
  %61 = call i32 @ossl_namemap_add_name(ptr noundef %58, i32 noundef %59, ptr noundef %60)
  store i32 %61, ptr %9, align 4, !tbaa !21
  br label %62

62:                                               ; preds = %57, %54
  call void @llvm.lifetime.end.p0(i64 8, ptr %10) #7
  call void @llvm.lifetime.end.p0(i64 4, ptr %9) #7
  ret void
}