; Function Attrs: nounwind uwtable
define internal fastcc void @get_legacy_evp_names(i32 noundef %0, i32 noundef %1, ptr noundef %2, ptr noundef captures(address) %3) unnamed_addr #0 {
  %5 = alloca [50 x i8], align 16
  %.not = icmp eq i32 %0, 0
  br i1 %.not, label %ossl_namemap_add_name.exit32, label %6

6:                                                ; preds = %4
  %7 = tail call ptr @OBJ_nid2sn(i32 noundef %0) #6
  %8 = icmp eq ptr %3, null
  br i1 %8, label %9, label %11

9:                                                ; preds = %6
  %10 = tail call ptr @ossl_namemap_stored(ptr noundef null)
  br label %11

11:                                               ; preds = %9, %6
  %.011.i = phi ptr [ %10, %9 ], [ %3, %6 ]
  %12 = icmp eq ptr %7, null
  br i1 %12, label %ossl_namemap_add_name.exit, label %13

13:                                               ; preds = %11
  %14 = load i8, ptr %7, align 1, !tbaa !25
  %15 = icmp eq i8 %14, 0
  %16 = icmp eq ptr %.011.i, null
  %or.cond.i = select i1 %15, i1 true, i1 %16
  br i1 %or.cond.i, label %ossl_namemap_add_name.exit, label %17

17:                                               ; preds = %13
  %18 = getelementptr inbounds nuw i8, ptr %.011.i, i64 16
  %19 = load ptr, ptr %18, align 8, !tbaa !11
  %20 = tail call i32 @CRYPTO_THREAD_write_lock(ptr noundef %19) #6
  %.not.i = icmp eq i32 %20, 0
  br i1 %.not.i, label %ossl_namemap_add_name.exit, label %21

21:                                               ; preds = %17
  %22 = tail call fastcc i32 @namemap_add_name(ptr noundef %.011.i, i32 noundef 0, ptr noundef %7)
  %23 = load ptr, ptr %18, align 8, !tbaa !11
  %24 = tail call i32 @CRYPTO_THREAD_unlock(ptr noundef %23) #6
  br label %ossl_namemap_add_name.exit

ossl_namemap_add_name.exit:                       ; preds = %11, %13, %17, %21
  %.0.i = phi i32 [ %22, %21 ], [ 0, %13 ], [ 0, %11 ], [ 0, %17 ]
  %25 = tail call ptr @OBJ_nid2ln(i32 noundef %0) #6
  br i1 %8, label %26, label %28

26:                                               ; preds = %ossl_namemap_add_name.exit
  %27 = tail call ptr @ossl_namemap_stored(ptr noundef null)
  br label %28

28:                                               ; preds = %26, %ossl_namemap_add_name.exit
  %.011.i28 = phi ptr [ %27, %26 ], [ %3, %ossl_namemap_add_name.exit ]
  %29 = icmp eq ptr %25, null
  br i1 %29, label %ossl_namemap_add_name.exit32, label %30

30:                                               ; preds = %28
  %31 = load i8, ptr %25, align 1, !tbaa !25
  %32 = icmp eq i8 %31, 0
  %33 = icmp eq ptr %.011.i28, null
  %or.cond.i29 = select i1 %32, i1 true, i1 %33
  br i1 %or.cond.i29, label %ossl_namemap_add_name.exit32, label %34

34:                                               ; preds = %30
  %35 = getelementptr inbounds nuw i8, ptr %.011.i28, i64 16
  %36 = load ptr, ptr %35, align 8, !tbaa !11
  %37 = tail call i32 @CRYPTO_THREAD_write_lock(ptr noundef %36) #6
  %.not.i30 = icmp eq i32 %37, 0
  br i1 %.not.i30, label %ossl_namemap_add_name.exit32, label %38

38:                                               ; preds = %34
  %39 = tail call fastcc i32 @namemap_add_name(ptr noundef %.011.i28, i32 noundef %.0.i, ptr noundef %25)
  %40 = load ptr, ptr %35, align 8, !tbaa !11
  %41 = tail call i32 @CRYPTO_THREAD_unlock(ptr noundef %40) #6
  br label %ossl_namemap_add_name.exit32

ossl_namemap_add_name.exit32:                     ; preds = %38, %34, %30, %28, %4
  %.0 = phi i32 [ 0, %4 ], [ %39, %38 ], [ 0, %30 ], [ 0, %28 ], [ 0, %34 ]
  %.not25 = icmp eq i32 %1, 0
  br i1 %.not25, label %97, label %42

42:                                               ; preds = %ossl_namemap_add_name.exit32
  %43 = tail call ptr @OBJ_nid2sn(i32 noundef %1) #6
  %44 = icmp eq ptr %3, null
  br i1 %44, label %45, label %47

45:                                               ; preds = %42
  %46 = tail call ptr @ossl_namemap_stored(ptr noundef null)
  br label %47

47:                                               ; preds = %45, %42
  %.011.i33 = phi ptr [ %46, %45 ], [ %3, %42 ]
  %48 = icmp eq ptr %43, null
  br i1 %48, label %ossl_namemap_add_name.exit37, label %49

49:                                               ; preds = %47
  %50 = load i8, ptr %43, align 1, !tbaa !25
  %51 = icmp eq i8 %50, 0
  %52 = icmp eq ptr %.011.i33, null
  %or.cond.i34 = select i1 %51, i1 true, i1 %52
  br i1 %or.cond.i34, label %ossl_namemap_add_name.exit37, label %53

53:                                               ; preds = %49
  %54 = getelementptr inbounds nuw i8, ptr %.011.i33, i64 16
  %55 = load ptr, ptr %54, align 8, !tbaa !11
  %56 = tail call i32 @CRYPTO_THREAD_write_lock(ptr noundef %55) #6
  %.not.i35 = icmp eq i32 %56, 0
  br i1 %.not.i35, label %ossl_namemap_add_name.exit37, label %57

57:                                               ; preds = %53
  %58 = tail call fastcc i32 @namemap_add_name(ptr noundef %.011.i33, i32 noundef %.0, ptr noundef %43)
  %59 = load ptr, ptr %54, align 8, !tbaa !11
  %60 = tail call i32 @CRYPTO_THREAD_unlock(ptr noundef %59) #6
  br label %ossl_namemap_add_name.exit37

ossl_namemap_add_name.exit37:                     ; preds = %47, %49, %53, %57
  %.0.i36 = phi i32 [ %58, %57 ], [ 0, %49 ], [ 0, %47 ], [ 0, %53 ]
  %61 = tail call ptr @OBJ_nid2ln(i32 noundef %1) #6
  br i1 %44, label %62, label %64

62:                                               ; preds = %ossl_namemap_add_name.exit37
  %63 = tail call ptr @ossl_namemap_stored(ptr noundef null)
  br label %64

64:                                               ; preds = %62, %ossl_namemap_add_name.exit37
  %.011.i38 = phi ptr [ %63, %62 ], [ %3, %ossl_namemap_add_name.exit37 ]
  %65 = icmp eq ptr %61, null
  br i1 %65, label %ossl_namemap_add_name.exit42, label %66

66:                                               ; preds = %64
  %67 = load i8, ptr %61, align 1, !tbaa !25
  %68 = icmp eq i8 %67, 0
  %69 = icmp eq ptr %.011.i38, null
  %or.cond.i39 = select i1 %68, i1 true, i1 %69
  br i1 %or.cond.i39, label %ossl_namemap_add_name.exit42, label %70

70:                                               ; preds = %66
  %71 = getelementptr inbounds nuw i8, ptr %.011.i38, i64 16
  %72 = load ptr, ptr %71, align 8, !tbaa !11
  %73 = tail call i32 @CRYPTO_THREAD_write_lock(ptr noundef %72) #6
  %.not.i40 = icmp eq i32 %73, 0
  br i1 %.not.i40, label %ossl_namemap_add_name.exit42, label %74

74:                                               ; preds = %70
  %75 = tail call fastcc i32 @namemap_add_name(ptr noundef %.011.i38, i32 noundef %.0.i36, ptr noundef %61)
  %76 = load ptr, ptr %71, align 8, !tbaa !11
  %77 = tail call i32 @CRYPTO_THREAD_unlock(ptr noundef %76) #6
  br label %ossl_namemap_add_name.exit42

ossl_namemap_add_name.exit42:                     ; preds = %64, %66, %70, %74
  %.0.i41 = phi i32 [ %75, %74 ], [ 0, %66 ], [ 0, %64 ], [ 0, %70 ]
  %78 = tail call ptr @OBJ_nid2obj(i32 noundef %1) #6
  %.not26 = icmp eq ptr %78, null
  br i1 %.not26, label %97, label %79

79:                                               ; preds = %ossl_namemap_add_name.exit42
  call void @llvm.lifetime.start.p0(i64 50, ptr nonnull %5) #6
  %80 = call i32 @OBJ_obj2txt(ptr noundef nonnull %5, i32 noundef 50, ptr noundef nonnull %78, i32 noundef 1) #6
  %81 = icmp sgt i32 %80, 0
  br i1 %81, label %82, label %ossl_namemap_add_name.exit47

82:                                               ; preds = %79
  br i1 %44, label %83, label %85

83:                                               ; preds = %82
  %84 = call ptr @ossl_namemap_stored(ptr noundef null)
  br label %85

85:                                               ; preds = %83, %82
  %.011.i43 = phi ptr [ %84, %83 ], [ %3, %82 ]
  %86 = load i8, ptr %5, align 16, !tbaa !25
  %87 = icmp eq i8 %86, 0
  %88 = icmp eq ptr %.011.i43, null
  %or.cond.i44 = select i1 %87, i1 true, i1 %88
  br i1 %or.cond.i44, label %ossl_namemap_add_name.exit47, label %89

89:                                               ; preds = %85
  %90 = getelementptr inbounds nuw i8, ptr %.011.i43, i64 16
  %91 = load ptr, ptr %90, align 8, !tbaa !11
  %92 = call i32 @CRYPTO_THREAD_write_lock(ptr noundef %91) #6
  %.not.i45 = icmp eq i32 %92, 0
  br i1 %.not.i45, label %ossl_namemap_add_name.exit47, label %93

93:                                               ; preds = %89
  %94 = call fastcc i32 @namemap_add_name(ptr noundef %.011.i43, i32 noundef %.0.i41, ptr noundef nonnull %5)
  %95 = load ptr, ptr %90, align 8, !tbaa !11
  %96 = call i32 @CRYPTO_THREAD_unlock(ptr noundef %95) #6
  br label %ossl_namemap_add_name.exit47

ossl_namemap_add_name.exit47:                     ; preds = %93, %89, %85, %79
  %.2 = phi i32 [ %.0.i41, %79 ], [ %94, %93 ], [ 0, %85 ], [ 0, %89 ]
  call void @llvm.lifetime.end.p0(i64 50, ptr nonnull %5) #6
  br label %97

97:                                               ; preds = %ossl_namemap_add_name.exit42, %ossl_namemap_add_name.exit47, %ossl_namemap_add_name.exit32
  %.1 = phi i32 [ %.2, %ossl_namemap_add_name.exit47 ], [ %.0.i41, %ossl_namemap_add_name.exit42 ], [ %.0, %ossl_namemap_add_name.exit32 ]
  %.not27 = icmp eq ptr %2, null
  br i1 %.not27, label %ossl_namemap_add_name.exit52, label %98

98:                                               ; preds = %97
  %99 = icmp eq ptr %3, null
  br i1 %99, label %100, label %102

100:                                              ; preds = %98
  %101 = call ptr @ossl_namemap_stored(ptr noundef null)
  br label %102

102:                                              ; preds = %98, %100
  %.011.i48 = phi ptr [ %101, %100 ], [ %3, %98 ]
  %103 = load i8, ptr %2, align 1, !tbaa !25
  %104 = icmp eq i8 %103, 0
  %105 = icmp eq ptr %.011.i48, null
  %or.cond.i49 = select i1 %104, i1 true, i1 %105
  br i1 %or.cond.i49, label %ossl_namemap_add_name.exit52, label %106

106:                                              ; preds = %102
  %107 = getelementptr inbounds nuw i8, ptr %.011.i48, i64 16
  %108 = load ptr, ptr %107, align 8, !tbaa !11
  %109 = call i32 @CRYPTO_THREAD_write_lock(ptr noundef %108) #6
  %.not.i50 = icmp eq i32 %109, 0
  br i1 %.not.i50, label %ossl_namemap_add_name.exit52, label %110

110:                                              ; preds = %106
  %111 = call fastcc i32 @namemap_add_name(ptr noundef %.011.i48, i32 noundef %.1, ptr noundef nonnull %2)
  %112 = load ptr, ptr %107, align 8, !tbaa !11
  %113 = call i32 @CRYPTO_THREAD_unlock(ptr noundef %112) #6
  br label %ossl_namemap_add_name.exit52

ossl_namemap_add_name.exit52:                     ; preds = %110, %106, %102, %97
  ret void
}